; Function Attrs: nounwind uwtable
define dso_local i32 @PyModule_Add(ptr noundef %0, ptr noundef %1, ptr noundef %2) local_unnamed_addr #0 {
  %4 = tail call i32 @PyModule_AddObjectRef(ptr noundef %0, ptr noundef %1, ptr noundef %2)
  %.not.i = icmp eq ptr %2, null
  br i1 %.not.i, label %Py_XDECREF.exit, label %5

5:                                                ; preds = %3
  %6 = load i32, ptr %2, align 8, !tbaa !29
  %.not.i.i = icmp sgt i32 %6, -1
  br i1 %.not.i.i, label %7, label %Py_XDECREF.exit

7:                                                ; preds = %5
  %8 = add nsw i32 %6, -1
  store i32 %8, ptr %2, align 8, !tbaa !29
  %9 = icmp eq i32 %8, 0
  br i1 %9, label %10, label %Py_XDECREF.exit

10:                                               ; preds = %7
  tail call void @_Py_Dealloc(ptr noundef nonnull %2) #7
  br label %Py_XDECREF.exit

Py_XDECREF.exit:                                  ; preds = %3, %5, %7, %10
  ret i32 %4
}